target datalayout = "e-m:e-p270:32:32-p271:32:32-p272:64:64-i64:64-i128:128-f80:128-n8:16:32:64-S128"
target triple = "x86_64-pc-linux-gnu"

%struct._object = type { %union.anon, ptr }
%union.anon = type { i64 }
%struct.lru_cache_object = type { %struct.lru_list_elem, ptr, i32, ptr, i64, ptr, i64, i64, ptr, ptr, ptr, ptr, ptr }
%struct.lru_list_elem = type { %struct._object, ptr, ptr, i64, ptr, ptr }

; Function Attrs: inlinehint nounwind uwtable
define internal ptr @_Py_TYPE(ptr noundef %0) #3 {
  %2 = alloca ptr, align 8
  store ptr %0, ptr %2, align 8, !tbaa !4
  %3 = load ptr, ptr %2, align 8, !tbaa !4
  %4 = getelementptr inbounds nuw %struct._object, ptr %3, i32 0, i32 1
  %5 = load ptr, ptr %4, align 8, !tbaa !129
  ret ptr %5
}

; Function Attrs: nounwind uwtable
define internal i32 @lru_cache_tp_traverse(ptr noundef %0, ptr noundef %1, ptr noundef %2) #0 {
  %4 = alloca i32, align 4
  %5 = alloca ptr, align 8
  %6 = alloca ptr, align 8
  %7 = alloca ptr, align 8
  %8 = alloca i32, align 4
  %9 = alloca i32, align 4
  %10 = alloca ptr, align 8
  %11 = alloca ptr, align 8
  %12 = alloca i32, align 4
  %13 = alloca i32, align 4
  %14 = alloca i32, align 4
  %15 = alloca i32, align 4
  %16 = alloca i32, align 4
  %17 = alloca i32, align 4
  %18 = alloca i32, align 4
  %19 = alloca i32, align 4
  %20 = alloca i32, align 4
  store ptr %0, ptr %5, align 8, !tbaa !155
  store ptr %1, ptr %6, align 8, !tbaa !9
  store ptr %2, ptr %7, align 8, !tbaa !9
  br label %21

21:                                               ; preds = %3
  %22 = load ptr, ptr %5, align 8, !tbaa !155
  %23 = call ptr @_Py_TYPE(ptr noundef %22)
  %24 = icmp ne ptr %23, null
  br i1 %24, label %25, label %39

25:                                               ; preds = %21
  call void @llvm.lifetime.start.p0(i64 4, ptr %8) #8
  %26 = load ptr, ptr %6, align 8, !tbaa !9
  %27 = load ptr, ptr %5, align 8, !tbaa !155
  %28 = call ptr @_Py_TYPE(ptr noundef %27)
  %29 = load ptr, ptr %7, align 8, !tbaa !9
  %30 = call i32 %26(ptr noundef %28, ptr noundef %29)
  store i32 %30, ptr %8, align 4, !tbaa !15
  %31 = load i32, ptr %8, align 4, !tbaa !15
  %32 = icmp ne i32 %31, 0
  br i1 %32, label %33, label %35

33:                                               ; preds = %25
  %34 = load i32, ptr %8, align 4, !tbaa !15
  store i32 %34, ptr %4, align 4
  store i32 1, ptr %9, align 4
  br label %36

35:                                               ; preds = %25
  store i32 0, ptr %9, align 4
  br label %36

36:                                               ; preds = %35, %33
  call void @llvm.lifetime.end.p0(i64 4, ptr %8) #8
  %37 = load i32, ptr %9, align 4
  switch i32 %37, label %267 [
    i32 0, label %38
    i32 1, label %265
  ]

38:                                               ; preds = %36
  br label %39

39:                                               ; preds = %38, %21
  br label %40

40:                                               ; preds = %39
  call void @llvm.lifetime.start.p0(i64 8, ptr %10) #8
  %41 = load ptr, ptr %5, align 8, !tbaa !155
  %42 = getelementptr inbounds nuw %struct.lru_cache_object, ptr %41, i32 0, i32 0
  %43 = getelementptr inbounds nuw %struct.lru_list_elem, ptr %42, i32 0, i32 2
  %44 = load ptr, ptr %43, align 8, !tbaa !162
  store ptr %44, ptr %10, align 8, !tbaa !163
  br label %45

45:                                               ; preds = %124, %40
  %46 = load ptr, ptr %10, align 8, !tbaa !163
  %47 = load ptr, ptr %5, align 8, !tbaa !155
  %48 = getelementptr inbounds nuw %struct.lru_cache_object, ptr %47, i32 0, i32 0
  %49 = icmp ne ptr %46, %48
  br i1 %49, label %50, label %125

50:                                               ; preds = %45
  call void @llvm.lifetime.start.p0(i64 8, ptr %11) #8
  %51 = load ptr, ptr %10, align 8, !tbaa !163
  %52 = getelementptr inbounds nuw %struct.lru_list_elem, ptr %51, i32 0, i32 2
  %53 = load ptr, ptr %52, align 8, !tbaa !164
  store ptr %53, ptr %11, align 8, !tbaa !163
  br label %54

54:                                               ; preds = %50
  %55 = load ptr, ptr %10, align 8, !tbaa !163
  %56 = getelementptr inbounds nuw %struct.lru_list_elem, ptr %55, i32 0, i32 4
  %57 = load ptr, ptr %56, align 8, !tbaa !165
  %58 = icmp ne ptr %57, null
  br i1 %58, label %59, label %74

59:                                               ; preds = %54
  call void @llvm.lifetime.start.p0(i64 4, ptr %12) #8
  %60 = load ptr, ptr %6, align 8, !tbaa !9
  %61 = load ptr, ptr %10, align 8, !tbaa !163
  %62 = getelementptr inbounds nuw %struct.lru_list_elem, ptr %61, i32 0, i32 4
  %63 = load ptr, ptr %62, align 8, !tbaa !165
  %64 = load ptr, ptr %7, align 8, !tbaa !9
  %65 = call i32 %60(ptr noundef %63, ptr noundef %64)
  store i32 %65, ptr %12, align 4, !tbaa !15
  %66 = load i32, ptr %12, align 4, !tbaa !15
  %67 = icmp ne i32 %66, 0
  br i1 %67, label %68, label %70

68:                                               ; preds = %59
  %69 = load i32, ptr %12, align 4, !tbaa !15
  store i32 %69, ptr %4, align 4
  store i32 1, ptr %9, align 4
  br label %71

70:                                               ; preds = %59
  store i32 0, ptr %9, align 4
  br label %71

71:                                               ; preds = %70, %68
  call void @llvm.lifetime.end.p0(i64 4, ptr %12) #8
  %72 = load i32, ptr %9, align 4
  switch i32 %72, label %122 [
    i32 0, label %73
  ]

73:                                               ; preds = %71
  br label %74

74:                                               ; preds = %73, %54
  br label %75

75:                                               ; preds = %74
  br label %76

76:                                               ; preds = %75
  br label %77

77:                                               ; preds = %76
  %78 = load ptr, ptr %10, align 8, !tbaa !163
  %79 = getelementptr inbounds nuw %struct.lru_list_elem, ptr %78, i32 0, i32 5
  %80 = load ptr, ptr %79, align 8, !tbaa !166
  %81 = icmp ne ptr %80, null
  br i1 %81, label %82, label %97

82:                                               ; preds = %77
  call void @llvm.lifetime.start.p0(i64 4, ptr %13) #8
  %83 = load ptr, ptr %6, align 8, !tbaa !9
  %84 = load ptr, ptr %10, align 8, !tbaa !163
  %85 = getelementptr inbounds nuw %struct.lru_list_elem, ptr %84, i32 0, i32 5
  %86 = load ptr, ptr %85, align 8, !tbaa !166
  %87 = load ptr, ptr %7, align 8, !tbaa !9
  %88 = call i32 %83(ptr noundef %86, ptr noundef %87)
  store i32 %88, ptr %13, align 4, !tbaa !15
  %89 = load i32, ptr %13, align 4, !tbaa !15
  %90 = icmp ne i32 %89, 0
  br i1 %90, label %91, label %93

91:                                               ; preds = %82
  %92 = load i32, ptr %13, align 4, !tbaa !15
  store i32 %92, ptr %4, align 4
  store i32 1, ptr %9, align 4
  br label %94

93:                                               ; preds = %82
  store i32 0, ptr %9, align 4
  br label %94

94:                                               ; preds = %93, %91
  call void @llvm.lifetime.end.p0(i64 4, ptr %13) #8
  %95 = load i32, ptr %9, align 4
  switch i32 %95, label %122 [
    i32 0, label %96
  ]

96:                                               ; preds = %94
  br label %97

97:                                               ; preds = %96, %77
  br label %98

98:                                               ; preds = %97
  br label %99

99:                                               ; preds = %98
  br label %100

100:                                              ; preds = %99
  %101 = load ptr, ptr %10, align 8, !tbaa !163
  %102 = call ptr @_Py_TYPE(ptr noundef %101)
  %103 = icmp ne ptr %102, null
  br i1 %103, label %104, label %118

104:                                              ; preds = %100
  call void @llvm.lifetime.start.p0(i64 4, ptr %14) #8
  %105 = load ptr, ptr %6, align 8, !tbaa !9
  %106 = load ptr, ptr %10, align 8, !tbaa !163
  %107 = call ptr @_Py_TYPE(ptr noundef %106)
  %108 = load ptr, ptr %7, align 8, !tbaa !9
  %109 = call i32 %105(ptr noundef %107, ptr noundef %108)
  store i32 %109, ptr %14, align 4, !tbaa !15
  %110 = load i32, ptr %14, align 4, !tbaa !15
  %111 = icmp ne i32 %110, 0
  br i1 %111, label %112, label %114

112:                                              ; preds = %104
  %113 = load i32, ptr %14, align 4, !tbaa !15
  store i32 %113, ptr %4, align 4
  store i32 1, ptr %9, align 4
  br label %115

114:                                              ; preds = %104
  store i32 0, ptr %9, align 4
  br label %115

115:                                              ; preds = %114, %112
  call void @llvm.lifetime.end.p0(i64 4, ptr %14) #8
  %116 = load i32, ptr %9, align 4
  switch i32 %116, label %122 [
    i32 0, label %117
  ]

117:                                              ; preds = %115
  br label %118

118:                                              ; preds = %117, %100
  br label %119

119:                                              ; preds = %118
  br label %120

120:                                              ; preds = %119
  %121 = load ptr, ptr %11, align 8, !tbaa !163
  store ptr %121, ptr %10, align 8, !tbaa !163
  store i32 0, ptr %9, align 4
  br label %122

122:                                              ; preds = %120, %115, %94, %71
  call void @llvm.lifetime.end.p0(i64 8, ptr %11) #8
  %123 = load i32, ptr %9, align 4
  switch i32 %123, label %264 [
    i32 0, label %124
  ]

124:                                              ; preds = %122
  br label %45, !llvm.loop !167

125:                                              ; preds = %45
  br label %126

126:                                              ; preds = %125
  %127 = load ptr, ptr %5, align 8, !tbaa !155
  %128 = getelementptr inbounds nuw %struct.lru_cache_object, ptr %127, i32 0, i32 3
  %129 = load ptr, ptr %128, align 8, !tbaa !168
  %130 = icmp ne ptr %129, null
  br i1 %130, label %131, label %146

131:                                              ; preds = %126
  call void @llvm.lifetime.start.p0(i64 4, ptr %15) #8
  %132 = load ptr, ptr %6, align 8, !tbaa !9
  %133 = load ptr, ptr %5, align 8, !tbaa !155
  %134 = getelementptr inbounds nuw %struct.lru_cache_object, ptr %133, i32 0, i32 3
  %135 = load ptr, ptr %134, align 8, !tbaa !168
  %136 = load ptr, ptr %7, align 8, !tbaa !9
  %137 = call i32 %132(ptr noundef %135, ptr noundef %136)
  store i32 %137, ptr %15, align 4, !tbaa !15
  %138 = load i32, ptr %15, align 4, !tbaa !15
  %139 = icmp ne i32 %138, 0
  br i1 %139, label %140, label %142

140:                                              ; preds = %131
  %141 = load i32, ptr %15, align 4, !tbaa !15
  store i32 %141, ptr %4, align 4
  store i32 1, ptr %9, align 4
  br label %143

142:                                              ; preds = %131
  store i32 0, ptr %9, align 4
  br label %143

143:                                              ; preds = %142, %140
  call void @llvm.lifetime.end.p0(i64 4, ptr %15) #8
  %144 = load i32, ptr %9, align 4
  switch i32 %144, label %264 [
    i32 0, label %145
  ]

145:                                              ; preds = %143
  br label %146

146:                                              ; preds = %145, %126
  br label %147

147:                                              ; preds = %146
  br label %148

148:                                              ; preds = %147
  br label %149

149:                                              ; preds = %148
  %150 = load ptr, ptr %5, align 8, !tbaa !155
  %151 = getelementptr inbounds nuw %struct.lru_cache_object, ptr %150, i32 0, i32 5
  %152 = load ptr, ptr %151, align 8, !tbaa !169
  %153 = icmp ne ptr %152, null
  br i1 %153, label %154, label %169

154:                                              ; preds = %149
  call void @llvm.lifetime.start.p0(i64 4, ptr %16) #8
  %155 = load ptr, ptr %6, align 8, !tbaa !9
  %156 = load ptr, ptr %5, align 8, !tbaa !155
  %157 = getelementptr inbounds nuw %struct.lru_cache_object, ptr %156, i32 0, i32 5
  %158 = load ptr, ptr %157, align 8, !tbaa !169
  %159 = load ptr, ptr %7, align 8, !tbaa !9
  %160 = call i32 %155(ptr noundef %158, ptr noundef %159)
  store i32 %160, ptr %16, align 4, !tbaa !15
  %161 = load i32, ptr %16, align 4, !tbaa !15
  %162 = icmp ne i32 %161, 0
  br i1 %162, label %163, label %165

163:                                              ; preds = %154
  %164 = load i32, ptr %16, align 4, !tbaa !15
  store i32 %164, ptr %4, align 4
  store i32 1, ptr %9, align 4
  br label %166

165:                                              ; preds = %154
  store i32 0, ptr %9, align 4
  br label %166

166:                                              ; preds = %165, %163
  call void @llvm.lifetime.end.p0(i64 4, ptr %16) #8
  %167 = load i32, ptr %9, align 4
  switch i32 %167, label %264 [
    i32 0, label %168
  ]

168:                                              ; preds = %166
  br label %169

169:                                              ; preds = %168, %149
  br label %170

170:                                              ; preds = %169
  br label %171

171:                                              ; preds = %170
  br label %172

172:                                              ; preds = %171
  %173 = load ptr, ptr %5, align 8, !tbaa !155
  %174 = getelementptr inbounds nuw %struct.lru_cache_object, ptr %173, i32 0, i32 8
  %175 = load ptr, ptr %174, align 8, !tbaa !170
  %176 = icmp ne ptr %175, null
  br i1 %176, label %177, label %192

177:                                              ; preds = %172
  call void @llvm.lifetime.start.p0(i64 4, ptr %17) #8
  %178 = load ptr, ptr %6, align 8, !tbaa !9
  %179 = load ptr, ptr %5, align 8, !tbaa !155
  %180 = getelementptr inbounds nuw %struct.lru_cache_object, ptr %179, i32 0, i32 8
  %181 = load ptr, ptr %180, align 8, !tbaa !170
  %182 = load ptr, ptr %7, align 8, !tbaa !9
  %183 = call i32 %178(ptr noundef %181, ptr noundef %182)
  store i32 %183, ptr %17, align 4, !tbaa !15
  %184 = load i32, ptr %17, align 4, !tbaa !15
  %185 = icmp ne i32 %184, 0
  br i1 %185, label %186, label %188

186:                                              ; preds = %177
  %187 = load i32, ptr %17, align 4, !tbaa !15
  store i32 %187, ptr %4, align 4
  store i32 1, ptr %9, align 4
  br label %189

188:                                              ; preds = %177
  store i32 0, ptr %9, align 4
  br label %189

189:                                              ; preds = %188, %186
  call void @llvm.lifetime.end.p0(i64 4, ptr %17) #8
  %190 = load i32, ptr %9, align 4
  switch i32 %190, label %264 [
    i32 0, label %191
  ]

191:                                              ; preds = %189
  br label %192

192:                                              ; preds = %191, %172
  br label %193

193:                                              ; preds = %192
  br label %194

194:                                              ; preds = %193
  br label %195

195:                                              ; preds = %194
  %196 = load ptr, ptr %5, align 8, !tbaa !155
  %197 = getelementptr inbounds nuw %struct.lru_cache_object, ptr %196, i32 0, i32 9
  %198 = load ptr, ptr %197, align 8, !tbaa !171
  %199 = icmp ne ptr %198, null
  br i1 %199, label %200, label %215

200:                                              ; preds = %195
  call void @llvm.lifetime.start.p0(i64 4, ptr %18) #8
  %201 = load ptr, ptr %6, align 8, !tbaa !9
  %202 = load ptr, ptr %5, align 8, !tbaa !155
  %203 = getelementptr inbounds nuw %struct.lru_cache_object, ptr %202, i32 0, i32 9
  %204 = load ptr, ptr %203, align 8, !tbaa !171
  %205 = load ptr, ptr %7, align 8, !tbaa !9
  %206 = call i32 %201(ptr noundef %204, ptr noundef %205)
  store i32 %206, ptr %18, align 4, !tbaa !15
  %207 = load i32, ptr %18, align 4, !tbaa !15
  %208 = icmp ne i32 %207, 0
  br i1 %208, label %209, label %211

209:                                              ; preds = %200
  %210 = load i32, ptr %18, align 4, !tbaa !15
  store i32 %210, ptr %4, align 4
  store i32 1, ptr %9, align 4
  br label %212

211:                                              ; preds = %200
  store i32 0, ptr %9, align 4
  br label %212

212:                                              ; preds = %211, %209
  call void @llvm.lifetime.end.p0(i64 4, ptr %18) #8
  %213 = load i32, ptr %9, align 4
  switch i32 %213, label %264 [
    i32 0, label %214
  ]

214:                                              ; preds = %212
  br label %215

215:                                              ; preds = %214, %195
  br label %216

216:                                              ; preds = %215
  br label %217

217:                                              ; preds = %216
  br label %218

218:                                              ; preds = %217
  %219 = load ptr, ptr %5, align 8, !tbaa !155
  %220 = getelementptr inbounds nuw %struct.lru_cache_object, ptr %219, i32 0, i32 10
  %221 = load ptr, ptr %220, align 8, !tbaa !172
  %222 = icmp ne ptr %221, null
  br i1 %222, label %223, label %238

223:                                              ; preds = %218
  call void @llvm.lifetime.start.p0(i64 4, ptr %19) #8
  %224 = load ptr, ptr %6, align 8, !tbaa !9
  %225 = load ptr, ptr %5, align 8, !tbaa !155
  %226 = getelementptr inbounds nuw %struct.lru_cache_object, ptr %225, i32 0, i32 10
  %227 = load ptr, ptr %226, align 8, !tbaa !172
  %228 = load ptr, ptr %7, align 8, !tbaa !9
  %229 = call i32 %224(ptr noundef %227, ptr noundef %228)
  store i32 %229, ptr %19, align 4, !tbaa !15
  %230 = load i32, ptr %19, align 4, !tbaa !15
  %231 = icmp ne i32 %230, 0
  br i1 %231, label %232, label %234

232:                                              ; preds = %223
  %233 = load i32, ptr %19, align 4, !tbaa !15
  store i32 %233, ptr %4, align 4
  store i32 1, ptr %9, align 4
  br label %235

234:                                              ; preds = %223
  store i32 0, ptr %9, align 4
  br label %235

235:                                              ; preds = %234, %232
  call void @llvm.lifetime.end.p0(i64 4, ptr %19) #8
  %236 = load i32, ptr %9, align 4
  switch i32 %236, label %264 [
    i32 0, label %237
  ]

237:                                              ; preds = %235
  br label %238

238:                                              ; preds = %237, %218
  br label %239

239:                                              ; preds = %238
  br label %240

240:                                              ; preds = %239
  br label %241

241:                                              ; preds = %240
  %242 = load ptr, ptr %5, align 8, !tbaa !155
  %243 = getelementptr inbounds nuw %struct.lru_cache_object, ptr %242, i32 0, i32 11
  %244 = load ptr, ptr %243, align 8, !tbaa !173
  %245 = icmp ne ptr %244, null
  br i1 %245, label %246, label %261

246:                                              ; preds = %241
  call void @llvm.lifetime.start.p0(i64 4, ptr %20) #8
  %247 = load ptr, ptr %6, align 8, !tbaa !9
  %248 = load ptr, ptr %5, align 8, !tbaa !155
  %249 = getelementptr inbounds nuw %struct.lru_cache_object, ptr %248, i32 0, i32 11
  %250 = load ptr, ptr %249, align 8, !tbaa !173
  %251 = load ptr, ptr %7, align 8, !tbaa !9
  %252 = call i32 %247(ptr noundef %250, ptr noundef %251)
  store i32 %252, ptr %20, align 4, !tbaa !15
  %253 = load i32, ptr %20, align 4, !tbaa !15
  %254 = icmp ne i32 %253, 0
  br i1 %254, label %255, label %257

255:                                              ; preds = %246
  %256 = load i32, ptr %20, align 4, !tbaa !15
  store i32 %256, ptr %4, align 4
  store i32 1, ptr %9, align 4
  br label %258

257:                                              ; preds = %246
  store i32 0, ptr %9, align 4
  br label %258

258:                                              ; preds = %257, %255
  call void @llvm.lifetime.end.p0(i64 4, ptr %20) #8
  %259 = load i32, ptr %9, align 4
  switch i32 %259, label %264 [
    i32 0, label %260
  ]

260:                                              ; preds = %258
  br label %261

261:                                              ; preds = %260, %241
  br label %262

262:                                              ; preds = %261
  br label %263

263:                                              ; preds = %262
  store i32 0, ptr %4, align 4
  store i32 1, ptr %9, align 4
  br label %264

264:                                              ; preds = %263, %258, %235, %212, %189, %166, %143, %122
  call void @llvm.lifetime.end.p0(i64 8, ptr %10) #8
  br label %265

265:                                              ; preds = %264, %36
  %266 = load i32, ptr %4, align 4
  ret i32 %266

267:                                              ; preds = %36
  unreachable
}