; Function Attrs: nounwind uwtable
define internal i32 @lru_cache_tp_traverse(ptr noundef readonly %0, ptr noundef readonly captures(none) %1, ptr noundef %2) #0 {
  %4 = getelementptr i8, ptr %0, i64 8
  %.val138 = load ptr, ptr %4, align 8, !tbaa !113
  %.not = icmp eq ptr %.val138, null
  br i1 %.not, label %7, label %5

5:                                                ; preds = %3
  %6 = tail call i32 %1(ptr noundef nonnull %.val138, ptr noundef %2) #9
  %.not115.not = icmp eq i32 %6, 0
  br i1 %.not115.not, label %7, label %.thread

7:                                                ; preds = %5, %3
  %8 = getelementptr inbounds nuw i8, ptr %0, i64 24
  %9 = load ptr, ptr %8, align 8, !tbaa !151
  %.not116142 = icmp eq ptr %9, %0
  br i1 %.not116142, label %._crit_edge, label %.lr.ph

.lr.ph:                                           ; preds = %7, %.backedge
  %.096143 = phi ptr [ %11, %.backedge ], [ %9, %7 ]
  %10 = getelementptr inbounds nuw i8, ptr %.096143, i64 24
  %11 = load ptr, ptr %10, align 8, !tbaa !152
  %12 = getelementptr inbounds nuw i8, ptr %.096143, i64 40
  %13 = load ptr, ptr %12, align 8, !tbaa !153
  %.not129 = icmp eq ptr %13, null
  br i1 %.not129, label %16, label %14

14:                                               ; preds = %.lr.ph
  %15 = tail call i32 %1(ptr noundef nonnull %13, ptr noundef %2) #9
  %.not130 = icmp eq i32 %15, 0
  br i1 %.not130, label %16, label %.thread

16:                                               ; preds = %.lr.ph, %14
  %17 = getelementptr inbounds nuw i8, ptr %.096143, i64 48
  %18 = load ptr, ptr %17, align 8, !tbaa !154
  %.not131 = icmp eq ptr %18, null
  br i1 %.not131, label %21, label %19

19:                                               ; preds = %16
  %20 = tail call i32 %1(ptr noundef nonnull %18, ptr noundef %2) #9
  %.not132 = icmp eq i32 %20, 0
  br i1 %.not132, label %21, label %.thread

21:                                               ; preds = %16, %19
  %22 = getelementptr i8, ptr %.096143, i64 8
  %.096.val137 = load ptr, ptr %22, align 8, !tbaa !113
  %.not133 = icmp eq ptr %.096.val137, null
  br i1 %.not133, label %.backedge, label %23

23:                                               ; preds = %21
  %24 = tail call i32 %1(ptr noundef nonnull %.096.val137, ptr noundef %2) #9
  %.not134 = icmp eq i32 %24, 0
  br i1 %.not134, label %.backedge, label %.thread

.backedge:                                        ; preds = %23, %21
  %.not116 = icmp eq ptr %11, %0
  br i1 %.not116, label %._crit_edge, label %.lr.ph, !llvm.loop !155

._crit_edge:                                      ; preds = %.backedge, %7
  %25 = getelementptr inbounds nuw i8, ptr %0, i64 72
  %26 = load ptr, ptr %25, align 8, !tbaa !156
  %.not117 = icmp eq ptr %26, null
  br i1 %.not117, label %29, label %27

27:                                               ; preds = %._crit_edge
  %28 = tail call i32 %1(ptr noundef nonnull %26, ptr noundef %2) #9
  %.not118 = icmp eq i32 %28, 0
  br i1 %.not118, label %29, label %.thread

29:                                               ; preds = %._crit_edge, %27
  %30 = getelementptr inbounds nuw i8, ptr %0, i64 88
  %31 = load ptr, ptr %30, align 8, !tbaa !157
  %.not119 = icmp eq ptr %31, null
  br i1 %.not119, label %34, label %32

32:                                               ; preds = %29
  %33 = tail call i32 %1(ptr noundef nonnull %31, ptr noundef %2) #9
  %.not120 = icmp eq i32 %33, 0
  br i1 %.not120, label %34, label %.thread

34:                                               ; preds = %29, %32
  %35 = getelementptr inbounds nuw i8, ptr %0, i64 112
  %36 = load ptr, ptr %35, align 8, !tbaa !158
  %.not121 = icmp eq ptr %36, null
  br i1 %.not121, label %39, label %37

37:                                               ; preds = %34
  %38 = tail call i32 %1(ptr noundef nonnull %36, ptr noundef %2) #9
  %.not122 = icmp eq i32 %38, 0
  br i1 %.not122, label %39, label %.thread

39:                                               ; preds = %34, %37
  %40 = getelementptr inbounds nuw i8, ptr %0, i64 120
  %41 = load ptr, ptr %40, align 8, !tbaa !159
  %.not123 = icmp eq ptr %41, null
  br i1 %.not123, label %44, label %42

42:                                               ; preds = %39
  %43 = tail call i32 %1(ptr noundef nonnull %41, ptr noundef %2) #9
  %.not124 = icmp eq i32 %43, 0
  br i1 %.not124, label %44, label %.thread

44:                                               ; preds = %39, %42
  %45 = getelementptr inbounds nuw i8, ptr %0, i64 128
  %46 = load ptr, ptr %45, align 8, !tbaa !160
  %.not125 = icmp eq ptr %46, null
  br i1 %.not125, label %49, label %47

47:                                               ; preds = %44
  %48 = tail call i32 %1(ptr noundef nonnull %46, ptr noundef %2) #9
  %.not126 = icmp eq i32 %48, 0
  br i1 %.not126, label %49, label %.thread

49:                                               ; preds = %44, %47
  %50 = getelementptr inbounds nuw i8, ptr %0, i64 136
  %51 = load ptr, ptr %50, align 8, !tbaa !161
  %.not127 = icmp eq ptr %51, null
  br i1 %.not127, label %54, label %52

52:                                               ; preds = %49
  %53 = tail call i32 %1(ptr noundef nonnull %51, ptr noundef %2) #9
  %.not128 = icmp eq i32 %53, 0
  br i1 %.not128, label %54, label %.thread

54:                                               ; preds = %52, %49
  br label %.thread

.thread:                                          ; preds = %14, %19, %23, %5, %54, %52, %47, %42, %37, %32, %27
  %.1 = phi i32 [ %6, %5 ], [ 0, %54 ], [ %53, %52 ], [ %48, %47 ], [ %43, %42 ], [ %38, %37 ], [ %33, %32 ], [ %28, %27 ], [ %20, %19 ], [ %15, %14 ], [ %24, %23 ]
  ret i32 %.1
}